target datalayout = "e-m:e-p270:32:32-p271:32:32-p272:64:64-i64:64-i128:128-f80:128-n8:16:32:64-S128"
target triple = "x86_64-pc-linux-gnu"

%struct.AVProbeData = type { ptr, ptr, i32, ptr }

; Function Attrs: alwaysinline nounwind willreturn memory(none) uwtable
define internal i32 @av_bswap32(i32 noundef %0) #2 {
  %2 = alloca i32, align 4
  store i32 %0, ptr %2, align 4, !tbaa !9
  %3 = load i32, ptr %2, align 4, !tbaa !9
  %4 = shl i32 %3, 8
  %5 = and i32 %4, 65280
  %6 = load i32, ptr %2, align 4, !tbaa !9
  %7 = lshr i32 %6, 8
  %8 = and i32 %7, 255
  %9 = or i32 %5, %8
  %10 = shl i32 %9, 16
  %11 = load i32, ptr %2, align 4, !tbaa !9
  %12 = lshr i32 %11, 16
  %13 = shl i32 %12, 8
  %14 = and i32 %13, 65280
  %15 = load i32, ptr %2, align 4, !tbaa !9
  %16 = lshr i32 %15, 16
  %17 = lshr i32 %16, 8
  %18 = and i32 %17, 255
  %19 = or i32 %14, %18
  %20 = or i32 %10, %19
  ret i32 %20
}

; Function Attrs: nounwind uwtable
define internal i32 @threedostr_probe(ptr noundef %0) #0 {
  %2 = alloca i32, align 4
  %3 = alloca ptr, align 8
  %4 = alloca i32, align 4
  %5 = alloca i32, align 4
  %6 = alloca i32, align 4
  %7 = alloca i32, align 4
  store ptr %0, ptr %3, align 8, !tbaa !4
  call void @llvm.lifetime.start.p0(i64 4, ptr %4) #5
  store i32 0, ptr %4, align 4, !tbaa !9
  br label %8

8:                                                ; preds = %120, %1
  %9 = load i32, ptr %4, align 4, !tbaa !9
  %10 = load ptr, ptr %3, align 8, !tbaa !4
  %11 = getelementptr inbounds nuw %struct.AVProbeData, ptr %10, i32 0, i32 2
  %12 = load i32, ptr %11, align 8, !tbaa !11
  %13 = icmp slt i32 %9, %12
  br i1 %13, label %15, label %14

14:                                               ; preds = %8
  store i32 2, ptr %5, align 4
  br label %121

15:                                               ; preds = %8
  call void @llvm.lifetime.start.p0(i64 4, ptr %6) #5
  %16 = load ptr, ptr %3, align 8, !tbaa !4
  %17 = getelementptr inbounds nuw %struct.AVProbeData, ptr %16, i32 0, i32 1
  %18 = load ptr, ptr %17, align 8, !tbaa !14
  %19 = load i32, ptr %4, align 4, !tbaa !9
  %20 = sext i32 %19 to i64
  %21 = getelementptr inbounds i8, ptr %18, i64 %20
  %22 = load i32, ptr %21, align 1, !tbaa !15
  store i32 %22, ptr %6, align 4, !tbaa !9
  call void @llvm.lifetime.start.p0(i64 4, ptr %7) #5
  %23 = load ptr, ptr %3, align 8, !tbaa !4
  %24 = getelementptr inbounds nuw %struct.AVProbeData, ptr %23, i32 0, i32 1
  %25 = load ptr, ptr %24, align 8, !tbaa !14
  %26 = load i32, ptr %4, align 4, !tbaa !9
  %27 = sext i32 %26 to i64
  %28 = getelementptr inbounds i8, ptr %25, i64 %27
  %29 = getelementptr inbounds i8, ptr %28, i64 4
  %30 = load i32, ptr %29, align 1, !tbaa !15
  %31 = call i32 @av_bswap32(i32 noundef %30) #6
  store i32 %31, ptr %7, align 4, !tbaa !9
  %32 = load i32, ptr %7, align 4, !tbaa !9
  %33 = icmp ult i32 %32, 8
  br i1 %33, label %42, label %34

34:                                               ; preds = %15
  %35 = load ptr, ptr %3, align 8, !tbaa !4
  %36 = getelementptr inbounds nuw %struct.AVProbeData, ptr %35, i32 0, i32 2
  %37 = load i32, ptr %36, align 8, !tbaa !11
  %38 = load i32, ptr %4, align 4, !tbaa !9
  %39 = sub nsw i32 %37, %38
  %40 = load i32, ptr %7, align 4, !tbaa !9
  %41 = icmp ult i32 %39, %40
  br i1 %41, label %42, label %43

42:                                               ; preds = %34, %15
  store i32 0, ptr %2, align 4
  store i32 1, ptr %5, align 4
  br label %118

43:                                               ; preds = %34
  %44 = load i32, ptr %4, align 4, !tbaa !9
  %45 = add nsw i32 %44, 8
  store i32 %45, ptr %4, align 4, !tbaa !9
  %46 = load i32, ptr %7, align 4, !tbaa !9
  %47 = sub i32 %46, 8
  store i32 %47, ptr %7, align 4, !tbaa !9
  %48 = load i32, ptr %6, align 4, !tbaa !9
  switch i32 %48, label %113 [
    i32 1280463939, label %114
    i32 1396985427, label %49
    i32 1380206675, label %104
  ]

49:                                               ; preds = %43
  %50 = load i32, ptr %7, align 4, !tbaa !9
  %51 = icmp ult i32 %50, 56
  br i1 %51, label %52, label %53

52:                                               ; preds = %49
  store i32 0, ptr %2, align 4
  store i32 1, ptr %5, align 4
  br label %118

53:                                               ; preds = %49
  %54 = load i32, ptr %4, align 4, !tbaa !9
  %55 = add nsw i32 %54, 8
  store i32 %55, ptr %4, align 4, !tbaa !9
  %56 = load ptr, ptr %3, align 8, !tbaa !4
  %57 = getelementptr inbounds nuw %struct.AVProbeData, ptr %56, i32 0, i32 1
  %58 = load ptr, ptr %57, align 8, !tbaa !14
  %59 = load i32, ptr %4, align 4, !tbaa !9
  %60 = sext i32 %59 to i64
  %61 = getelementptr inbounds i8, ptr %58, i64 %60
  %62 = load i32, ptr %61, align 1, !tbaa !15
  %63 = icmp ne i32 %62, 1380206675
  br i1 %63, label %64, label %65

64:                                               ; preds = %53
  store i32 0, ptr %2, align 4
  store i32 1, ptr %5, align 4
  br label %118

65:                                               ; preds = %53
  %66 = load i32, ptr %4, align 4, !tbaa !9
  %67 = add nsw i32 %66, 28
  store i32 %67, ptr %4, align 4, !tbaa !9
  %68 = load ptr, ptr %3, align 8, !tbaa !4
  %69 = getelementptr inbounds nuw %struct.AVProbeData, ptr %68, i32 0, i32 1
  %70 = load ptr, ptr %69, align 8, !tbaa !14
  %71 = load i32, ptr %4, align 4, !tbaa !9
  %72 = sext i32 %71 to i64
  %73 = getelementptr inbounds i8, ptr %70, i64 %72
  %74 = load i32, ptr %73, align 1, !tbaa !15
  %75 = call i32 @av_bswap32(i32 noundef %74) #6
  %76 = icmp ule i32 %75, 0
  br i1 %76, label %77, label %78

77:                                               ; preds = %65
  store i32 0, ptr %2, align 4
  store i32 1, ptr %5, align 4
  br label %118

78:                                               ; preds = %65
  %79 = load i32, ptr %4, align 4, !tbaa !9
  %80 = add nsw i32 %79, 4
  store i32 %80, ptr %4, align 4, !tbaa !9
  %81 = load ptr, ptr %3, align 8, !tbaa !4
  %82 = getelementptr inbounds nuw %struct.AVProbeData, ptr %81, i32 0, i32 1
  %83 = load ptr, ptr %82, align 8, !tbaa !14
  %84 = load i32, ptr %4, align 4, !tbaa !9
  %85 = sext i32 %84 to i64
  %86 = getelementptr inbounds i8, ptr %83, i64 %85
  %87 = load i32, ptr %86, align 1, !tbaa !15
  %88 = call i32 @av_bswap32(i32 noundef %87) #6
  %89 = icmp ule i32 %88, 0
  br i1 %89, label %90, label %91

90:                                               ; preds = %78
  store i32 0, ptr %2, align 4
  store i32 1, ptr %5, align 4
  br label %118

91:                                               ; preds = %78
  %92 = load i32, ptr %4, align 4, !tbaa !9
  %93 = add nsw i32 %92, 4
  store i32 %93, ptr %4, align 4, !tbaa !9
  %94 = load ptr, ptr %3, align 8, !tbaa !4
  %95 = getelementptr inbounds nuw %struct.AVProbeData, ptr %94, i32 0, i32 1
  %96 = load ptr, ptr %95, align 8, !tbaa !14
  %97 = load i32, ptr %4, align 4, !tbaa !9
  %98 = sext i32 %97 to i64
  %99 = getelementptr inbounds i8, ptr %96, i64 %98
  %100 = load i32, ptr %99, align 1, !tbaa !15
  %101 = icmp eq i32 %100, 844645459
  br i1 %101, label %102, label %103

102:                                              ; preds = %91
  store i32 100, ptr %2, align 4
  store i32 1, ptr %5, align 4
  br label %118

103:                                              ; preds = %91
  store i32 0, ptr %2, align 4
  store i32 1, ptr %5, align 4
  br label %118

104:                                              ; preds = %43
  %105 = load i32, ptr %7, align 4, !tbaa !9
  %106 = icmp ugt i32 %105, 120
  br i1 %106, label %107, label %112

107:                                              ; preds = %104
  %108 = load i32, ptr %4, align 4, !tbaa !9
  %109 = add nsw i32 %108, 120
  store i32 %109, ptr %4, align 4, !tbaa !9
  %110 = load i32, ptr %7, align 4, !tbaa !9
  %111 = sub i32 %110, 120
  store i32 %111, ptr %7, align 4, !tbaa !9
  br label %112

112:                                              ; preds = %107, %104
  br label %114

113:                                              ; preds = %43
  br label %114

114:                                              ; preds = %113, %112, %43
  %115 = load i32, ptr %7, align 4, !tbaa !9
  %116 = load i32, ptr %4, align 4, !tbaa !9
  %117 = add i32 %116, %115
  store i32 %117, ptr %4, align 4, !tbaa !9
  store i32 0, ptr %5, align 4
  br label %118

118:                                              ; preds = %114, %103, %102, %90, %77, %64, %52, %42
  call void @llvm.lifetime.end.p0(i64 4, ptr %7) #5
  call void @llvm.lifetime.end.p0(i64 4, ptr %6) #5
  %119 = load i32, ptr %5, align 4
  switch i32 %119, label %121 [
    i32 0, label %120
  ]

120:                                              ; preds = %118
  br label %8, !llvm.loop !16

121:                                              ; preds = %118, %14
  call void @llvm.lifetime.end.p0(i64 4, ptr %4) #5
  %122 = load i32, ptr %5, align 4
  switch i32 %122, label %126 [
    i32 2, label %123
    i32 1, label %124
  ]

123:                                              ; preds = %121
  store i32 0, ptr %2, align 4
  br label %124

124:                                              ; preds = %123, %121
  %125 = load i32, ptr %2, align 4
  ret i32 %125

126:                                              ; preds = %121
  unreachable
}