; Function Attrs: nofree norecurse nosync nounwind memory(read, inaccessiblemem: none) uwtable
define internal range(i32 0, 101) i32 @threedostr_probe(ptr noundef readonly captures(none) %0) #0 {
  %2 = getelementptr inbounds nuw i8, ptr %0, i64 16
  %3 = load i32, ptr %2, align 8, !tbaa !4
  %.not4750 = icmp sgt i32 %3, 0
  br i1 %.not4750, label %.lr.ph, label %.thread

.lr.ph:                                           ; preds = %1
  %4 = getelementptr inbounds nuw i8, ptr %0, i64 8
  %5 = load ptr, ptr %4, align 8, !tbaa !11
  br label %6

6:                                                ; preds = %.lr.ph, %41
  %.03651 = phi i32 [ 0, %.lr.ph ], [ %42, %41 ]
  %7 = sext i32 %.03651 to i64
  %8 = getelementptr i8, ptr %5, i64 %7
  %9 = getelementptr inbounds nuw i8, ptr %8, i64 4
  %10 = load i32, ptr %9, align 1, !tbaa !12
  %11 = tail call i32 @llvm.bswap.i32(i32 %10)
  %12 = icmp ult i32 %11, 8
  %13 = sub nsw i32 %3, %.03651
  %14 = icmp ult i32 %13, %11
  %or.cond = select i1 %12, i1 true, i1 %14
  br i1 %or.cond, label %.thread, label %15

15:                                               ; preds = %6
  %16 = load i32, ptr %8, align 1, !tbaa !12
  %17 = add nsw i32 %.03651, 8
  %18 = add i32 %11, -8
  switch i32 %16, label %41 [
    i32 1380206675, label %36
    i32 1396985427, label %19
  ]

19:                                               ; preds = %15
  %20 = icmp ult i32 %18, 56
  br i1 %20, label %.thread, label %21

21:                                               ; preds = %19
  %22 = getelementptr i8, ptr %8, i64 16
  %23 = load i32, ptr %22, align 1, !tbaa !12
  %.not = icmp eq i32 %23, 1380206675
  br i1 %.not, label %24, label %.thread

24:                                               ; preds = %21
  %25 = getelementptr i8, ptr %8, i64 44
  %26 = load i32, ptr %25, align 1, !tbaa !12
  %27 = icmp eq i32 %26, 0
  br i1 %27, label %.thread, label %28

28:                                               ; preds = %24
  %29 = getelementptr i8, ptr %8, i64 48
  %30 = load i32, ptr %29, align 1, !tbaa !12
  %31 = icmp eq i32 %30, 0
  br i1 %31, label %.thread, label %32

32:                                               ; preds = %28
  %33 = getelementptr i8, ptr %8, i64 52
  %34 = load i32, ptr %33, align 1, !tbaa !12
  %35 = icmp eq i32 %34, 844645459
  %. = select i1 %35, i32 100, i32 0
  br label %.thread

36:                                               ; preds = %15
  %37 = icmp ugt i32 %18, 120
  br i1 %37, label %38, label %41

38:                                               ; preds = %36
  %39 = add nsw i32 %.03651, 128
  %40 = add i32 %11, -128
  br label %41

41:                                               ; preds = %38, %36, %15
  %.238 = phi i32 [ %17, %15 ], [ %39, %38 ], [ %17, %36 ]
  %.0 = phi i32 [ %18, %15 ], [ %40, %38 ], [ %18, %36 ]
  %42 = add i32 %.0, %.238
  %.not47 = icmp slt i32 %42, %3
  br i1 %.not47, label %6, label %.thread, !llvm.loop !13

.thread:                                          ; preds = %41, %6, %1, %32, %28, %24, %21, %19
  %spec.select = phi i32 [ 0, %19 ], [ 0, %21 ], [ 0, %24 ], [ 0, %28 ], [ %., %32 ], [ 0, %1 ], [ 0, %6 ], [ 0, %41 ]
  ret i32 %spec.select
}